; Function Attrs: mustprogress nofree norecurse nosync nounwind willreturn memory(argmem: read) uwtable
define i64 @cli_htu32_numitems(ptr noundef readonly %0) local_unnamed_addr #11 {
  %.not = icmp eq ptr %0, null
  br i1 %.not, label %5, label %2

2:                                                ; preds = %1
  %3 = getelementptr inbounds i8, ptr %0, i64 8
  %4 = load i64, ptr %3, align 8
  br label %5

5:                                                ; preds = %1, %2
  %.0 = phi i64 [ %4, %2 ], [ 0, %1 ]
  ret i64 %.0
}